target datalayout = "e-m:e-p270:32:32-p271:32:32-p272:64:64-i64:64-i128:128-f80:128-n8:16:32:64-S128"
target triple = "x86_64-unknown-linux-gnu"

%"class.std::__cxx11::basic_string" = type { %"struct.std::__cxx11::basic_string<char>::_Alloc_hider", i64, %union.anon }
%"struct.std::__cxx11::basic_string<char>::_Alloc_hider" = type { ptr }
%union.anon = type { i64, [8 x i8] }
%"class.cvc5::parser::SymManager" = type { ptr, %"class.std::unique_ptr.36", i8, i8, i8, i8, %"class.std::__cxx11::basic_string" }
%"class.std::unique_ptr.36" = type { %"struct.std::__uniq_ptr_data.37" }
%"struct.std::__uniq_ptr_data.37" = type { %"class.std::__uniq_ptr_impl.38" }
%"class.std::__uniq_ptr_impl.38" = type { %"class.std::tuple.39" }
%"class.std::tuple.39" = type { %"struct.std::_Tuple_impl.40" }
%"struct.std::_Tuple_impl.40" = type { %"struct.std::_Head_base.43" }
%"struct.std::_Head_base.43" = type { ptr }

; Function Attrs: mustprogress uwtable
define void @_ZN4cvc56parser10SymManager8setLogicERKNSt7__cxx1112basic_stringIcSt11char_traitsIcESaIcEEEb(ptr noundef nonnull align 8 dereferenceable(56) %this, ptr noundef nonnull align 8 dereferenceable(32) %logic, i1 noundef zeroext %isForced) #4 align 2 {
entry:
  %this.addr = alloca ptr, align 8
  %logic.addr = alloca ptr, align 8
  %isForced.addr = alloca i8, align 1
  store ptr %this, ptr %this.addr, align 8
  store ptr %logic, ptr %logic.addr, align 8
  %frombool = zext i1 %isForced to i8
  store i8 %frombool, ptr %isForced.addr, align 1
  %this1 = load ptr, ptr %this.addr, align 8
  %d_logicIsForced = getelementptr inbounds %"class.cvc5::parser::SymManager", ptr %this1, i32 0, i32 4
  %0 = load i8, ptr %d_logicIsForced, align 2
  %tobool = trunc i8 %0 to i1
  br i1 %tobool, label %lor.lhs.false, label %if.then

lor.lhs.false:                                    ; preds = %entry
  %1 = load i8, ptr %isForced.addr, align 1
  %tobool2 = trunc i8 %1 to i1
  br i1 %tobool2, label %if.then, label %if.end

if.then:                                          ; preds = %lor.lhs.false, %entry
  %2 = load i8, ptr %isForced.addr, align 1
  %tobool3 = trunc i8 %2 to i1
  %d_logicIsForced4 = getelementptr inbounds %"class.cvc5::parser::SymManager", ptr %this1, i32 0, i32 4
  %frombool5 = zext i1 %tobool3 to i8
  store i8 %frombool5, ptr %d_logicIsForced4, align 2
  %3 = load ptr, ptr %logic.addr, align 8
  %d_logic = getelementptr inbounds %"class.cvc5::parser::SymManager", ptr %this1, i32 0, i32 6
  %call = call noundef nonnull align 8 dereferenceable(32) ptr @_ZNSt7__cxx1112basic_stringIcSt11char_traitsIcESaIcEEaSERKS4_(ptr noundef nonnull align 8 dereferenceable(32) %d_logic, ptr noundef nonnull align 8 dereferenceable(32) %3)
  br label %if.end

if.end:                                           ; preds = %if.then, %lor.lhs.false
  %d_logicIsSet = getelementptr inbounds %"class.cvc5::parser::SymManager", ptr %this1, i32 0, i32 5
  store i8 1, ptr %d_logicIsSet, align 1
  ret void
}