; Function Attrs: mustprogress uwtable
define void @_ZN4cvc56parser10SymManager8setLogicERKNSt7__cxx1112basic_stringIcSt11char_traitsIcESaIcEEEb(ptr noundef nonnull align 8 dereferenceable(56) %this, ptr noundef nonnull align 8 dereferenceable(32) %logic, i1 noundef zeroext %isForced) local_unnamed_addr #3 align 2 {
entry:
  %d_logicIsForced = getelementptr inbounds i8, ptr %this, i64 18
  %0 = load i8, ptr %d_logicIsForced, align 2
  %1 = and i8 %0, 1
  %tobool.not = icmp eq i8 %1, 0
  %brmerge = or i1 %tobool.not, %isForced
  br i1 %brmerge, label %if.then, label %if.end

if.then:                                          ; preds = %entry
  %frombool = zext i1 %isForced to i8
  store i8 %frombool, ptr %d_logicIsForced, align 2
  %d_logic = getelementptr inbounds i8, ptr %this, i64 24
  %call = tail call noundef nonnull align 8 dereferenceable(32) ptr @_ZNSt7__cxx1112basic_stringIcSt11char_traitsIcESaIcEEaSERKS4_(ptr noundef nonnull align 8 dereferenceable(32) %d_logic, ptr noundef nonnull align 8 dereferenceable(32) %logic)
  br label %if.end

if.end:                                           ; preds = %entry, %if.then
  %d_logicIsSet = getelementptr inbounds i8, ptr %this, i64 19
  store i8 1, ptr %d_logicIsSet, align 1
  ret void
}